; Function Attrs: nounwind uwtable
define noalias nonnull ptr @l_Lean_Elab_Structural_IndGroupInfo_ofInductiveVal(ptr noundef %0) local_unnamed_addr #0 {
  %2 = getelementptr inbounds nuw i8, ptr %0, i64 32
  %3 = load ptr, ptr %2, align 8, !tbaa !11
  %4 = ptrtoint ptr %3 to i64
  %5 = and i64 %4, 1
  %.not = icmp eq i64 %5, 0
  br i1 %.not, label %6, label %lean_inc.exit11

6:                                                ; preds = %1
  %.val.i = load i32, ptr %3, align 4, !tbaa !5
  %7 = icmp sgt i32 %.val.i, 0
  br i1 %7, label %8, label %10, !prof !10

8:                                                ; preds = %6
  %9 = add nuw i32 %.val.i, 1
  store i32 %9, ptr %3, align 4, !tbaa !5
  br label %lean_inc.exit11

10:                                               ; preds = %6
  %.not.i12 = icmp eq i32 %.val.i, 0
  br i1 %.not.i12, label %lean_inc.exit11, label %11

11:                                               ; preds = %10
  tail call void @lean_inc_ref_cold(ptr noundef nonnull %3) #4
  br label %lean_inc.exit11

lean_inc.exit11:                                  ; preds = %11, %10, %8, %1
  %12 = tail call ptr @lean_array_mk(ptr noundef %3) #4
  %13 = getelementptr inbounds nuw i8, ptr %0, i64 48
  %14 = load ptr, ptr %13, align 8, !tbaa !11
  %15 = ptrtoint ptr %14 to i64
  %16 = and i64 %15, 1
  %.not16 = icmp eq i64 %16, 0
  br i1 %.not16, label %17, label %lean_inc.exit

17:                                               ; preds = %lean_inc.exit11
  %.val.i13 = load i32, ptr %14, align 4, !tbaa !5
  %18 = icmp sgt i32 %.val.i13, 0
  br i1 %18, label %19, label %21, !prof !10

19:                                               ; preds = %17
  %20 = add nuw i32 %.val.i13, 1
  store i32 %20, ptr %14, align 4, !tbaa !5
  br label %lean_inc.exit

21:                                               ; preds = %17
  %.not.i14 = icmp eq i32 %.val.i13, 0
  br i1 %.not.i14, label %lean_inc.exit, label %22

22:                                               ; preds = %21
  tail call void @lean_inc_ref_cold(ptr noundef nonnull %14) #4
  br label %lean_inc.exit

lean_inc.exit:                                    ; preds = %22, %21, %19, %lean_inc.exit11
  %23 = ptrtoint ptr %0 to i64
  %24 = and i64 %23, 1
  %.not17 = icmp eq i64 %24, 0
  br i1 %.not17, label %25, label %lean_dec.exit

25:                                               ; preds = %lean_inc.exit
  %26 = load i32, ptr %0, align 4, !tbaa !5
  %27 = icmp sgt i32 %26, 1
  br i1 %27, label %28, label %30, !prof !10

28:                                               ; preds = %25
  %29 = add nsw i32 %26, -1
  store i32 %29, ptr %0, align 4, !tbaa !5
  br label %lean_dec.exit

30:                                               ; preds = %25
  %.not.i = icmp eq i32 %26, 0
  br i1 %.not.i, label %lean_dec.exit, label %31

31:                                               ; preds = %30
  tail call void @lean_dec_ref_cold(ptr noundef nonnull %0) #4
  br label %lean_dec.exit

lean_dec.exit:                                    ; preds = %31, %30, %28, %lean_inc.exit
  tail call void @lean_inc_heartbeat() #4
  %32 = tail call noalias ptr @mi_malloc_small(i64 noundef 24) #4
  %33 = icmp eq ptr %32, null
  br i1 %33, label %34, label %lean_alloc_ctor.exit

34:                                               ; preds = %lean_dec.exit
  tail call void @lean_internal_panic_out_of_memory() #5
  unreachable

lean_alloc_ctor.exit:                             ; preds = %lean_dec.exit
  %35 = getelementptr inbounds nuw i8, ptr %32, i64 4
  store i32 1, ptr %32, align 4, !tbaa !5
  store i32 131096, ptr %35, align 4
  %36 = getelementptr inbounds nuw i8, ptr %32, i64 8
  store ptr %12, ptr %36, align 8, !tbaa !11
  %37 = getelementptr inbounds nuw i8, ptr %32, i64 16
  store ptr %14, ptr %37, align 8, !tbaa !11
  ret ptr %32
}